; Function Attrs: mustprogress nofree norecurse nosync nounwind willreturn memory(argmem: readwrite) uwtable
define void @_ZN9pymeshlab17FunctionParameterC2EOS0_(ptr nocapture noundef nonnull writeonly align 8 dereferenceable(16) %0, ptr nocapture noundef nonnull align 8 dereferenceable(16) %1) unnamed_addr #7 align 2 {
  store ptr getelementptr inbounds ({ [4 x ptr] }, ptr @_ZTVN9pymeshlab17FunctionParameterE, i64 0, i32 0, i64 2), ptr %0, align 8
  %3 = getelementptr inbounds i8, ptr %1, i64 8
  %4 = load ptr, ptr %3, align 8
  %5 = getelementptr inbounds i8, ptr %0, i64 8
  store ptr %4, ptr %5, align 8
  store ptr null, ptr %3, align 8
  ret void
}